target datalayout = "e-m:e-p270:32:32-p271:32:32-p272:64:64-i64:64-i128:128-f80:128-n8:16:32:64-S128"
target triple = "x86_64-pc-linux-gnu"

; Function Attrs: nounwind uwtable
define internal void @exchange_one_int128(ptr noundef %0, ptr noundef %1, i64 noundef %2) #0 {
  %4 = alloca ptr, align 8
  %5 = alloca ptr, align 8
  %6 = alloca i64, align 8
  %7 = alloca ptr, align 8
  %8 = alloca ptr, align 8
  %9 = alloca i64, align 8
  %10 = alloca i64, align 8
  store ptr %0, ptr %4, align 8
  store ptr %1, ptr %5, align 8
  store i64 %2, ptr %6, align 8
  %11 = load ptr, ptr %4, align 8
  store ptr %11, ptr %7, align 8
  %12 = load ptr, ptr %5, align 8
  store ptr %12, ptr %8, align 8
  %13 = load ptr, ptr %7, align 8
  %14 = getelementptr i64, ptr %13, i64 0
  %15 = load i64, ptr %14, align 8
  store i64 %15, ptr %9, align 8
  %16 = load ptr, ptr %7, align 8
  %17 = getelementptr i64, ptr %16, i64 1
  %18 = load i64, ptr %17, align 8
  store i64 %18, ptr %10, align 8
  %19 = load ptr, ptr %8, align 8
  %20 = getelementptr i64, ptr %19, i64 0
  %21 = load i64, ptr %20, align 8
  %22 = load ptr, ptr %7, align 8
  %23 = getelementptr i64, ptr %22, i64 0
  store i64 %21, ptr %23, align 8
  %24 = load ptr, ptr %8, align 8
  %25 = getelementptr i64, ptr %24, i64 1
  %26 = load i64, ptr %25, align 8
  %27 = load ptr, ptr %7, align 8
  %28 = getelementptr i64, ptr %27, i64 1
  store i64 %26, ptr %28, align 8
  %29 = load i64, ptr %9, align 8
  %30 = load ptr, ptr %8, align 8
  %31 = getelementptr i64, ptr %30, i64 0
  store i64 %29, ptr %31, align 8
  %32 = load i64, ptr %10, align 8
  %33 = load ptr, ptr %8, align 8
  %34 = getelementptr i64, ptr %33, i64 1
  store i64 %32, ptr %34, align 8
  ret void
}