; Function Attrs: mustprogress nofree norecurse nosync nounwind willreturn memory(argmem: readwrite) uwtable
define internal void @exchange_one_int128(ptr nocapture noundef %0, ptr nocapture noundef %1, i64 %2) unnamed_addr #14 {
  %4 = getelementptr i8, ptr %0, i64 8
  %5 = load i64, ptr %1, align 8
  %6 = getelementptr i8, ptr %1, i64 8
  %7 = load <2 x i64>, ptr %0, align 8
  store i64 %5, ptr %0, align 8
  %8 = load i64, ptr %6, align 8
  store i64 %8, ptr %4, align 8
  store <2 x i64> %7, ptr %1, align 8
  ret void
}